; Function Attrs: mustprogress uwtable
define internal void @_ZN12_GLOBAL__N_116SmtrPrintVisitor5equalEN5Yosys10Functional4NodeES3_S3_(ptr dead_on_unwind noalias writable sret(%"class.Yosys::SExpr") align 8 %0, ptr noundef nonnull align 8 dereferenceable(56) %1, ptr readnone captures(none) %2, i32 %3, ptr %4, i32 %5, ptr noundef readonly byval(%"class.Yosys::Functional::Node") align 8 captures(none) %6) unnamed_addr #5 align 2 personality ptr @__gxx_personality_v0 {
  %8 = alloca %"class.Yosys::Functional::Node", align 8
  %9 = alloca %"class.Yosys::Functional::Node", align 8
  %10 = alloca %"class.Yosys::SExpr", align 8
  %11 = alloca %"class.Yosys::SExpr", align 8
  %12 = alloca %"class.Yosys::SExpr", align 8
  call void @llvm.lifetime.start.p0(i64 40, ptr nonnull %10) #26
  call void @llvm.lifetime.start.p0(i64 40, ptr nonnull %11) #26
  %13 = getelementptr inbounds nuw i8, ptr %1, i64 8
  call void @llvm.lifetime.start.p0(i64 16, ptr nonnull %9)
  store ptr %4, ptr %9, align 8, !noalias !614
  %14 = getelementptr inbounds nuw i8, ptr %9, i64 8
  store i32 %5, ptr %14, align 8, !noalias !614
  %15 = getelementptr inbounds nuw i8, ptr %1, i64 24
  %16 = load ptr, ptr %15, align 8, !tbaa !157, !noalias !614
  %.not.i.i = icmp eq ptr %16, null
  br i1 %.not.i.i, label %17, label %_ZNKSt8functionIFN5Yosys5SExprENS0_10Functional4NodeEEEclES3_.exit

17:                                               ; preds = %7
  tail call void @_ZSt25__throw_bad_function_callv() #28, !noalias !614
  unreachable

_ZNKSt8functionIFN5Yosys5SExprENS0_10Functional4NodeEEEclES3_.exit: ; preds = %7
  %18 = getelementptr inbounds nuw i8, ptr %1, i64 32
  %19 = load ptr, ptr %18, align 8, !tbaa !159, !noalias !614
  call void %19(ptr dead_on_unwind nonnull writable sret(%"class.Yosys::SExpr") align 8 %11, ptr noundef nonnull align 8 dereferenceable(32) %13, ptr noundef nonnull align 8 dereferenceable(16) %9)
  call void @llvm.lifetime.end.p0(i64 16, ptr nonnull %9)
  call void @llvm.lifetime.start.p0(i64 40, ptr nonnull %12) #26
  %.sroa.0.0.copyload = load ptr, ptr %6, align 8, !tbaa !544
  %.sroa.2.0..sroa_idx = getelementptr inbounds nuw i8, ptr %6, i64 8
  %.sroa.2.0.copyload = load i32, ptr %.sroa.2.0..sroa_idx, align 8, !tbaa !46
  call void @llvm.lifetime.start.p0(i64 16, ptr nonnull %8)
  store ptr %.sroa.0.0.copyload, ptr %8, align 8, !noalias !617
  %20 = getelementptr inbounds nuw i8, ptr %8, i64 8
  store i32 %.sroa.2.0.copyload, ptr %20, align 8, !noalias !617
  %21 = load ptr, ptr %15, align 8, !tbaa !157, !noalias !617
  %.not.i.i12 = icmp eq ptr %21, null
  br i1 %.not.i.i12, label %22, label %23

22:                                               ; preds = %_ZNKSt8functionIFN5Yosys5SExprENS0_10Functional4NodeEEEclES3_.exit
  invoke void @_ZSt25__throw_bad_function_callv() #28
          to label %.noexc unwind label %60

.noexc:                                           ; preds = %22
  unreachable

23:                                               ; preds = %_ZNKSt8functionIFN5Yosys5SExprENS0_10Functional4NodeEEEclES3_.exit
  %24 = load ptr, ptr %18, align 8, !tbaa !159, !noalias !617
  invoke void %24(ptr dead_on_unwind nonnull writable sret(%"class.Yosys::SExpr") align 8 %12, ptr noundef nonnull align 8 dereferenceable(32) %13, ptr noundef nonnull align 8 dereferenceable(16) %8)
          to label %25 unwind label %60

25:                                               ; preds = %23
  call void @llvm.lifetime.end.p0(i64 16, ptr nonnull %8)
  invoke void @_ZN5Yosys9SExprUtil4listIJRA5_KcNS_5SExprES5_EEES5_DpOT_(ptr dead_on_unwind nonnull writable sret(%"class.Yosys::SExpr") align 8 %10, ptr noundef nonnull align 1 dereferenceable(5) @.str.126, ptr noundef nonnull align 8 dereferenceable(40) %11, ptr noundef nonnull align 8 dereferenceable(40) %12)
          to label %26 unwind label %62

26:                                               ; preds = %25
  invoke void @_ZN5Yosys9SExprUtil4listIJRA16_KcNS_5SExprEEEES5_DpOT_(ptr dead_on_unwind writable sret(%"class.Yosys::SExpr") align 8 %0, ptr noundef nonnull align 1 dereferenceable(16) @.str.127, ptr noundef nonnull align 8 dereferenceable(40) %10)
          to label %_ZN12_GLOBAL__N_116SmtrPrintVisitor9from_boolEON5Yosys5SExprE.exit unwind label %64

_ZN12_GLOBAL__N_116SmtrPrintVisitor9from_boolEON5Yosys5SExprE.exit: ; preds = %26
  %27 = getelementptr inbounds nuw i8, ptr %10, i64 32
  %28 = load i8, ptr %27, align 8, !tbaa !117
  %switch.i.i.i = icmp eq i8 %28, 0
  br i1 %switch.i.i.i, label %.noexc1.i.i, label %29

.noexc1.i.i:                                      ; preds = %_ZN12_GLOBAL__N_116SmtrPrintVisitor9from_boolEON5Yosys5SExprE.exit
  call void @_ZNSt6vectorIN5Yosys5SExprESaIS1_EED2Ev(ptr noundef nonnull align 8 dereferenceable(40) %10) #26
  br label %_ZN5Yosys5SExprD2Ev.exit

29:                                               ; preds = %_ZN12_GLOBAL__N_116SmtrPrintVisitor9from_boolEON5Yosys5SExprE.exit
  %30 = load ptr, ptr %10, align 8, !tbaa !17
  %31 = getelementptr inbounds nuw i8, ptr %10, i64 16
  %32 = icmp eq ptr %30, %31
  br i1 %32, label %_ZNKSt7__cxx1112basic_stringIcSt11char_traitsIcESaIcEE11_M_is_localEv.exit.thread.i.i.i.i.i.i.i.i.i.i, label %_ZNKSt7__cxx1112basic_stringIcSt11char_traitsIcESaIcEE11_M_is_localEv.exit.i.i.i.i.i.i.i.i.i.i

_ZNKSt7__cxx1112basic_stringIcSt11char_traitsIcESaIcEE11_M_is_localEv.exit.thread.i.i.i.i.i.i.i.i.i.i: ; preds = %29
  %33 = getelementptr inbounds nuw i8, ptr %10, i64 8
  %34 = load i64, ptr %33, align 8, !tbaa !22
  %35 = icmp ult i64 %34, 16
  call void @llvm.assume(i1 %35)
  br label %_ZN5Yosys5SExprD2Ev.exit

_ZNKSt7__cxx1112basic_stringIcSt11char_traitsIcESaIcEE11_M_is_localEv.exit.i.i.i.i.i.i.i.i.i.i: ; preds = %29
  %36 = load i64, ptr %31, align 8, !tbaa !23
  %37 = add i64 %36, 1
  call void @_ZdlPvm(ptr noundef %30, i64 noundef %37) #27
  br label %_ZN5Yosys5SExprD2Ev.exit

_ZN5Yosys5SExprD2Ev.exit:                         ; preds = %.noexc1.i.i, %_ZNKSt7__cxx1112basic_stringIcSt11char_traitsIcESaIcEE11_M_is_localEv.exit.thread.i.i.i.i.i.i.i.i.i.i, %_ZNKSt7__cxx1112basic_stringIcSt11char_traitsIcESaIcEE11_M_is_localEv.exit.i.i.i.i.i.i.i.i.i.i
  store i8 -1, ptr %27, align 8, !tbaa !117
  %38 = getelementptr inbounds nuw i8, ptr %12, i64 32
  %39 = load i8, ptr %38, align 8, !tbaa !117
  %switch.i.i.i16 = icmp eq i8 %39, 0
  br i1 %switch.i.i.i16, label %.noexc1.i.i19, label %40

.noexc1.i.i19:                                    ; preds = %_ZN5Yosys5SExprD2Ev.exit
  call void @_ZNSt6vectorIN5Yosys5SExprESaIS1_EED2Ev(ptr noundef nonnull align 8 dereferenceable(40) %12) #26
  br label %_ZN5Yosys5SExprD2Ev.exit20

40:                                               ; preds = %_ZN5Yosys5SExprD2Ev.exit
  %41 = load ptr, ptr %12, align 8, !tbaa !17
  %42 = getelementptr inbounds nuw i8, ptr %12, i64 16
  %43 = icmp eq ptr %41, %42
  br i1 %43, label %_ZNKSt7__cxx1112basic_stringIcSt11char_traitsIcESaIcEE11_M_is_localEv.exit.thread.i.i.i.i.i.i.i.i.i.i18, label %_ZNKSt7__cxx1112basic_stringIcSt11char_traitsIcESaIcEE11_M_is_localEv.exit.i.i.i.i.i.i.i.i.i.i17

_ZNKSt7__cxx1112basic_stringIcSt11char_traitsIcESaIcEE11_M_is_localEv.exit.thread.i.i.i.i.i.i.i.i.i.i18: ; preds = %40
  %44 = getelementptr inbounds nuw i8, ptr %12, i64 8
  %45 = load i64, ptr %44, align 8, !tbaa !22
  %46 = icmp ult i64 %45, 16
  call void @llvm.assume(i1 %46)
  br label %_ZN5Yosys5SExprD2Ev.exit20

_ZNKSt7__cxx1112basic_stringIcSt11char_traitsIcESaIcEE11_M_is_localEv.exit.i.i.i.i.i.i.i.i.i.i17: ; preds = %40
  %47 = load i64, ptr %42, align 8, !tbaa !23
  %48 = add i64 %47, 1
  call void @_ZdlPvm(ptr noundef %41, i64 noundef %48) #27
  br label %_ZN5Yosys5SExprD2Ev.exit20

_ZN5Yosys5SExprD2Ev.exit20:                       ; preds = %.noexc1.i.i19, %_ZNKSt7__cxx1112basic_stringIcSt11char_traitsIcESaIcEE11_M_is_localEv.exit.thread.i.i.i.i.i.i.i.i.i.i18, %_ZNKSt7__cxx1112basic_stringIcSt11char_traitsIcESaIcEE11_M_is_localEv.exit.i.i.i.i.i.i.i.i.i.i17
  call void @llvm.lifetime.end.p0(i64 40, ptr nonnull %12) #26
  %49 = getelementptr inbounds nuw i8, ptr %11, i64 32
  %50 = load i8, ptr %49, align 8, !tbaa !117
  %switch.i.i.i21 = icmp eq i8 %50, 0
  br i1 %switch.i.i.i21, label %.noexc1.i.i24, label %51

.noexc1.i.i24:                                    ; preds = %_ZN5Yosys5SExprD2Ev.exit20
  call void @_ZNSt6vectorIN5Yosys5SExprESaIS1_EED2Ev(ptr noundef nonnull align 8 dereferenceable(40) %11) #26
  br label %_ZN5Yosys5SExprD2Ev.exit25

51:                                               ; preds = %_ZN5Yosys5SExprD2Ev.exit20
  %52 = load ptr, ptr %11, align 8, !tbaa !17
  %53 = getelementptr inbounds nuw i8, ptr %11, i64 16
  %54 = icmp eq ptr %52, %53
  br i1 %54, label %_ZNKSt7__cxx1112basic_stringIcSt11char_traitsIcESaIcEE11_M_is_localEv.exit.thread.i.i.i.i.i.i.i.i.i.i23, label %_ZNKSt7__cxx1112basic_stringIcSt11char_traitsIcESaIcEE11_M_is_localEv.exit.i.i.i.i.i.i.i.i.i.i22

_ZNKSt7__cxx1112basic_stringIcSt11char_traitsIcESaIcEE11_M_is_localEv.exit.thread.i.i.i.i.i.i.i.i.i.i23: ; preds = %51
  %55 = getelementptr inbounds nuw i8, ptr %11, i64 8
  %56 = load i64, ptr %55, align 8, !tbaa !22
  %57 = icmp ult i64 %56, 16
  call void @llvm.assume(i1 %57)
  br label %_ZN5Yosys5SExprD2Ev.exit25

_ZNKSt7__cxx1112basic_stringIcSt11char_traitsIcESaIcEE11_M_is_localEv.exit.i.i.i.i.i.i.i.i.i.i22: ; preds = %51
  %58 = load i64, ptr %53, align 8, !tbaa !23
  %59 = add i64 %58, 1
  call void @_ZdlPvm(ptr noundef %52, i64 noundef %59) #27
  br label %_ZN5Yosys5SExprD2Ev.exit25

_ZN5Yosys5SExprD2Ev.exit25:                       ; preds = %.noexc1.i.i24, %_ZNKSt7__cxx1112basic_stringIcSt11char_traitsIcESaIcEE11_M_is_localEv.exit.thread.i.i.i.i.i.i.i.i.i.i23, %_ZNKSt7__cxx1112basic_stringIcSt11char_traitsIcESaIcEE11_M_is_localEv.exit.i.i.i.i.i.i.i.i.i.i22
  call void @llvm.lifetime.end.p0(i64 40, ptr nonnull %11) #26
  call void @llvm.lifetime.end.p0(i64 40, ptr nonnull %10) #26
  ret void

60:                                               ; preds = %23, %22
  %61 = landingpad { ptr, i32 }
          cleanup
  br label %67

62:                                               ; preds = %25
  %63 = landingpad { ptr, i32 }
          cleanup
  br label %66

64:                                               ; preds = %26
  %65 = landingpad { ptr, i32 }
          cleanup
  call void @_ZN5Yosys5SExprD2Ev(ptr noundef nonnull align 8 dereferenceable(40) %10) #26
  br label %66

66:                                               ; preds = %64, %62
  %.pn = phi { ptr, i32 } [ %65, %64 ], [ %63, %62 ]
  call void @_ZN5Yosys5SExprD2Ev(ptr noundef nonnull align 8 dereferenceable(40) %12) #26
  br label %67

67:                                               ; preds = %66, %60
  %.pn.pn = phi { ptr, i32 } [ %.pn, %66 ], [ %61, %60 ]
  call void @llvm.lifetime.end.p0(i64 40, ptr nonnull %12) #26
  call void @_ZN5Yosys5SExprD2Ev(ptr noundef nonnull align 8 dereferenceable(40) %11) #26
  call void @llvm.lifetime.end.p0(i64 40, ptr nonnull %11) #26
  call void @llvm.lifetime.end.p0(i64 40, ptr nonnull %10) #26
  resume { ptr, i32 } %.pn.pn
}